target datalayout = "e-m:e-p270:32:32-p271:32:32-p272:64:64-i64:64-i128:128-f80:128-n8:16:32:64-S128"
target triple = "x86_64-unknown-linux-gnu"

%"class.boost::detail::shared_count" = type { ptr }
%"class.QuantLib::CrankNicolsonScheme" = type { double, double, %"class.boost::shared_ptr.18", %"class.boost::shared_ptr.19" }
%"class.boost::shared_ptr.18" = type { ptr, %"class.boost::detail::shared_count" }
%"class.boost::shared_ptr.19" = type { ptr, %"class.boost::detail::shared_count" }

@.str.8 = private unnamed_addr constant [8 x i8] c"px != 0\00", align 1
@.str.9 = private unnamed_addr constant [102 x i8] c"generated/home/dtcxzyw/WorkSpace/SDK/vcpkg/installed/x64-linux/include/boost/smart_ptr/shared_ptr.hpp\00", align 1
@__PRETTY_FUNCTION__._ZNK5boost10shared_ptrIN8QuantLib19ExplicitEulerSchemeEEptEv = private unnamed_addr constant [155 x i8] c"typename boost::detail::sp_member_access<T>::type boost::shared_ptr<QuantLib::ExplicitEulerScheme>::operator->() const [T = QuantLib::ExplicitEulerScheme]\00", align 1
@__PRETTY_FUNCTION__._ZNK5boost10shared_ptrIN8QuantLib19ImplicitEulerSchemeEEptEv = private unnamed_addr constant [155 x i8] c"typename boost::detail::sp_member_access<T>::type boost::shared_ptr<QuantLib::ImplicitEulerScheme>::operator->() const [T = QuantLib::ImplicitEulerScheme]\00", align 1

; Function Attrs: mustprogress uwtable
define linkonce_odr noundef ptr @_ZNK5boost10shared_ptrIN8QuantLib19ImplicitEulerSchemeEEptEv(ptr noundef nonnull align 8 dereferenceable(16) %this) #3 comdat align 2 {
entry:
  %this.addr = alloca ptr, align 8
  store ptr %this, ptr %this.addr, align 8, !tbaa !3
  %this1 = load ptr, ptr %this.addr, align 8
  %px = getelementptr inbounds nuw %"class.boost::shared_ptr.19", ptr %this1, i32 0, i32 0
  %0 = load ptr, ptr %px, align 8, !tbaa !20
  %cmp = icmp ne ptr %0, null
  %lnot = xor i1 %cmp, true
  %lnot2 = xor i1 %lnot, true
  %conv = zext i1 %lnot2 to i64
  %expval = call i64 @llvm.expect.i64(i64 %conv, i64 1)
  %tobool = icmp ne i64 %expval, 0
  br i1 %tobool, label %cond.true, label %cond.false

cond.true:                                        ; preds = %entry
  br label %cond.end

cond.false:                                       ; preds = %entry
  call void @_ZN5boost16assertion_failedEPKcS1_S1_l(ptr noundef @.str.8, ptr noundef @__PRETTY_FUNCTION__._ZNK5boost10shared_ptrIN8QuantLib19ImplicitEulerSchemeEEptEv, ptr noundef @.str.9, i64 noundef 784)
  br label %cond.end

cond.end:                                         ; preds = %cond.false, %cond.true
  %px3 = getelementptr inbounds nuw %"class.boost::shared_ptr.19", ptr %this1, i32 0, i32 0
  %1 = load ptr, ptr %px3, align 8, !tbaa !20
  ret ptr %1
}

; Function Attrs: mustprogress uwtable
define linkonce_odr noundef ptr @_ZNK5boost10shared_ptrIN8QuantLib19ExplicitEulerSchemeEEptEv(ptr noundef nonnull align 8 dereferenceable(16) %this) #3 comdat align 2 {
entry:
  %this.addr = alloca ptr, align 8
  store ptr %this, ptr %this.addr, align 8, !tbaa !3
  %this1 = load ptr, ptr %this.addr, align 8
  %px = getelementptr inbounds nuw %"class.boost::shared_ptr.18", ptr %this1, i32 0, i32 0
  %0 = load ptr, ptr %px, align 8, !tbaa !19
  %cmp = icmp ne ptr %0, null
  %lnot = xor i1 %cmp, true
  %lnot2 = xor i1 %lnot, true
  %conv = zext i1 %lnot2 to i64
  %expval = call i64 @llvm.expect.i64(i64 %conv, i64 1)
  %tobool = icmp ne i64 %expval, 0
  br i1 %tobool, label %cond.true, label %cond.false

cond.true:                                        ; preds = %entry
  br label %cond.end

cond.false:                                       ; preds = %entry
  call void @_ZN5boost16assertion_failedEPKcS1_S1_l(ptr noundef @.str.8, ptr noundef @__PRETTY_FUNCTION__._ZNK5boost10shared_ptrIN8QuantLib19ExplicitEulerSchemeEEptEv, ptr noundef @.str.9, i64 noundef 784)
  br label %cond.end

cond.end:                                         ; preds = %cond.false, %cond.true
  %px3 = getelementptr inbounds nuw %"class.boost::shared_ptr.18", ptr %this1, i32 0, i32 0
  %1 = load ptr, ptr %px3, align 8, !tbaa !19
  ret ptr %1
}

; Function Attrs: mustprogress uwtable
define void @_ZN8QuantLib19CrankNicolsonScheme7setStepEd(ptr noundef nonnull align 8 dereferenceable(48) %this, double noundef %dt) #3 align 2 {
entry:
  %this.addr = alloca ptr, align 8
  %dt.addr = alloca double, align 8
  store ptr %this, ptr %this.addr, align 8, !tbaa !3
  store double %dt, ptr %dt.addr, align 8, !tbaa !9
  %this1 = load ptr, ptr %this.addr, align 8
  %0 = load double, ptr %dt.addr, align 8, !tbaa !9
  %dt_ = getelementptr inbounds nuw %"class.QuantLib::CrankNicolsonScheme", ptr %this1, i32 0, i32 0
  store double %0, ptr %dt_, align 8, !tbaa !13
  %explicit_ = getelementptr inbounds nuw %"class.QuantLib::CrankNicolsonScheme", ptr %this1, i32 0, i32 2
  %call = call noundef ptr @_ZNK5boost10shared_ptrIN8QuantLib19ExplicitEulerSchemeEEptEv(ptr noundef nonnull align 8 dereferenceable(16) %explicit_)
  %dt_2 = getelementptr inbounds nuw %"class.QuantLib::CrankNicolsonScheme", ptr %this1, i32 0, i32 0
  %1 = load double, ptr %dt_2, align 8, !tbaa !13
  call void @_ZN8QuantLib19ExplicitEulerScheme7setStepEd(ptr noundef nonnull align 8 dereferenceable(48) %call, double noundef %1)
  %implicit_ = getelementptr inbounds nuw %"class.QuantLib::CrankNicolsonScheme", ptr %this1, i32 0, i32 3
  %call3 = call noundef ptr @_ZNK5boost10shared_ptrIN8QuantLib19ImplicitEulerSchemeEEptEv(ptr noundef nonnull align 8 dereferenceable(16) %implicit_)
  %dt_4 = getelementptr inbounds nuw %"class.QuantLib::CrankNicolsonScheme", ptr %this1, i32 0, i32 0
  %2 = load double, ptr %dt_4, align 8, !tbaa !13
  call void @_ZN8QuantLib19ImplicitEulerScheme7setStepEd(ptr noundef nonnull align 8 dereferenceable(76) %call3, double noundef %2)
  ret void
}