; Function Attrs: mustprogress uwtable
define void @_ZN8QuantLib19CrankNicolsonScheme7setStepEd(ptr nocapture noundef nonnull align 8 dereferenceable(48) %this, double noundef %dt) local_unnamed_addr #3 align 2 {
entry:
  store double %dt, ptr %this, align 8, !tbaa !22
  %explicit_ = getelementptr inbounds nuw i8, ptr %this, i64 16
  %0 = load ptr, ptr %explicit_, align 8, !tbaa !38
  %cmp.not.i = icmp eq ptr %0, null
  br i1 %cmp.not.i, label %cond.false.i, label %_ZNK5boost10shared_ptrIN8QuantLib19ExplicitEulerSchemeEEptEv.exit, !prof !44

cond.false.i:                                     ; preds = %entry
  tail call void @_ZN5boost16assertion_failedEPKcS1_S1_l(ptr noundef nonnull @.str.8, ptr noundef nonnull @__PRETTY_FUNCTION__._ZNK5boost10shared_ptrIN8QuantLib19ExplicitEulerSchemeEEptEv, ptr noundef nonnull @.str.9, i64 noundef 784)
  %.pre.i = load ptr, ptr %explicit_, align 8, !tbaa !38
  %.pre = load double, ptr %this, align 8, !tbaa !22
  br label %_ZNK5boost10shared_ptrIN8QuantLib19ExplicitEulerSchemeEEptEv.exit

_ZNK5boost10shared_ptrIN8QuantLib19ExplicitEulerSchemeEEptEv.exit: ; preds = %entry, %cond.false.i
  %1 = phi double [ %dt, %entry ], [ %.pre, %cond.false.i ]
  %2 = phi ptr [ %0, %entry ], [ %.pre.i, %cond.false.i ]
  tail call void @_ZN8QuantLib19ExplicitEulerScheme7setStepEd(ptr noundef nonnull align 8 dereferenceable(48) %2, double noundef %1)
  %implicit_ = getelementptr inbounds nuw i8, ptr %this, i64 32
  %3 = load ptr, ptr %implicit_, align 8, !tbaa !43
  %cmp.not.i1 = icmp eq ptr %3, null
  br i1 %cmp.not.i1, label %cond.false.i2, label %_ZNK5boost10shared_ptrIN8QuantLib19ImplicitEulerSchemeEEptEv.exit, !prof !44

cond.false.i2:                                    ; preds = %_ZNK5boost10shared_ptrIN8QuantLib19ExplicitEulerSchemeEEptEv.exit
  tail call void @_ZN5boost16assertion_failedEPKcS1_S1_l(ptr noundef nonnull @.str.8, ptr noundef nonnull @__PRETTY_FUNCTION__._ZNK5boost10shared_ptrIN8QuantLib19ImplicitEulerSchemeEEptEv, ptr noundef nonnull @.str.9, i64 noundef 784)
  %.pre.i3 = load ptr, ptr %implicit_, align 8, !tbaa !43
  br label %_ZNK5boost10shared_ptrIN8QuantLib19ImplicitEulerSchemeEEptEv.exit

_ZNK5boost10shared_ptrIN8QuantLib19ImplicitEulerSchemeEEptEv.exit: ; preds = %_ZNK5boost10shared_ptrIN8QuantLib19ExplicitEulerSchemeEEptEv.exit, %cond.false.i2
  %4 = phi ptr [ %3, %_ZNK5boost10shared_ptrIN8QuantLib19ExplicitEulerSchemeEEptEv.exit ], [ %.pre.i3, %cond.false.i2 ]
  %5 = load double, ptr %this, align 8, !tbaa !22
  tail call void @_ZN8QuantLib19ImplicitEulerScheme7setStepEd(ptr noundef nonnull align 8 dereferenceable(76) %4, double noundef %5)
  ret void
}